; Function Attrs: mustprogress uwtable
define noundef range(i32 -1, 1) i32 @_ZN3zmq6pair_t5xrecvEPNS_5msg_tE(ptr noundef nonnull readonly align 8 captures(none) dereferenceable(1840) %0, ptr noundef nonnull %1) unnamed_addr #0 align 2 {
  %3 = tail call noundef i32 @_ZN3zmq5msg_t5closeEv(ptr noundef nonnull align 8 dereferenceable(64) %1)
  %.not = icmp eq i32 %3, 0
  br i1 %.not, label %12, label %4, !prof !86

4:                                                ; preds = %2
  %5 = tail call ptr @__errno_location() #17
  %6 = load i32, ptr %5, align 4, !tbaa !90
  %7 = tail call ptr @strerror(i32 noundef %6) #14
  %8 = load ptr, ptr @stderr, align 8, !tbaa !87
  %9 = tail call i32 (ptr, ptr, ...) @fprintf(ptr noundef %8, ptr noundef nonnull @.str.4, ptr noundef %7, ptr noundef nonnull @.str.2, i32 noundef 78) #13
  %10 = load ptr, ptr @stderr, align 8, !tbaa !87
  %11 = tail call i32 @fflush(ptr noundef %10)
  tail call void @_ZN3zmq9zmq_abortEPKc(ptr noundef %7)
  br label %12

12:                                               ; preds = %4, %2
  %13 = getelementptr inbounds nuw i8, ptr %0, i64 1832
  %14 = load ptr, ptr %13, align 8, !tbaa !6
  %.not11 = icmp eq ptr %14, null
  br i1 %.not11, label %17, label %15

15:                                               ; preds = %12
  %16 = tail call noundef zeroext i1 @_ZN3zmq6pipe_t4readEPNS_5msg_tE(ptr noundef nonnull align 8 dereferenceable(328) %14, ptr noundef nonnull %1)
  br i1 %16, label %26, label %17

17:                                               ; preds = %15, %12
  %18 = tail call noundef i32 @_ZN3zmq5msg_t4initEv(ptr noundef nonnull align 8 dereferenceable(64) %1)
  %.not12 = icmp eq i32 %18, 0
  %.pre = tail call ptr @__errno_location() #17
  br i1 %.not12, label %._crit_edge, label %19, !prof !86

19:                                               ; preds = %17
  %20 = load i32, ptr %.pre, align 4, !tbaa !90
  %21 = tail call ptr @strerror(i32 noundef %20) #14
  %22 = load ptr, ptr @stderr, align 8, !tbaa !87
  %23 = tail call i32 (ptr, ptr, ...) @fprintf(ptr noundef %22, ptr noundef nonnull @.str.4, ptr noundef %21, ptr noundef nonnull @.str.2, i32 noundef 83) #13
  %24 = load ptr, ptr @stderr, align 8, !tbaa !87
  %25 = tail call i32 @fflush(ptr noundef %24)
  tail call void @_ZN3zmq9zmq_abortEPKc(ptr noundef %21)
  br label %._crit_edge

._crit_edge:                                      ; preds = %17, %19
  store i32 11, ptr %.pre, align 4, !tbaa !90
  br label %26

26:                                               ; preds = %15, %._crit_edge
  %.0 = phi i32 [ -1, %._crit_edge ], [ 0, %15 ]
  ret i32 %.0
}